target datalayout = "e-m:e-p270:32:32-p271:32:32-p272:64:64-i64:64-i128:128-f80:128-n8:16:32:64-S128"
target triple = "x86_64-pc-linux-gnu"

%struct.gz_state = type { %struct.gzFile_s, i32, i32, ptr, i32, i32, ptr, ptr, i32, i32, i64, i32, i32, i32, i32, i32, i64, i32, i32, ptr, %struct.z_stream_s }
%struct.gzFile_s = type { i32, ptr, i64 }
%struct.z_stream_s = type { ptr, i32, i64, ptr, i32, i64, ptr, ptr, ptr, ptr, ptr, i32, i64, i64 }

@.str.1 = private unnamed_addr constant [33 x i8] c"request does not fit in a size_t\00", align 1

; Function Attrs: nounwind uwtable
define i64 @gzfread(ptr noundef %0, i64 noundef %1, i64 noundef %2, ptr noundef %3) #0 {
  %5 = alloca i64, align 8
  %6 = alloca ptr, align 8
  %7 = alloca i64, align 8
  %8 = alloca i64, align 8
  %9 = alloca ptr, align 8
  %10 = alloca i64, align 8
  %11 = alloca ptr, align 8
  %12 = alloca i32, align 4
  store ptr %0, ptr %6, align 8, !tbaa !8
  store i64 %1, ptr %7, align 8, !tbaa !19
  store i64 %2, ptr %8, align 8, !tbaa !19
  store ptr %3, ptr %9, align 8, !tbaa !3
  call void @llvm.lifetime.start.p0(i64 8, ptr %10) #8
  call void @llvm.lifetime.start.p0(i64 8, ptr %11) #8
  %13 = load ptr, ptr %9, align 8, !tbaa !3
  %14 = icmp eq ptr %13, null
  br i1 %14, label %15, label %16

15:                                               ; preds = %4
  store i64 0, ptr %5, align 8
  store i32 1, ptr %12, align 4
  br label %60

16:                                               ; preds = %4
  %17 = load ptr, ptr %9, align 8, !tbaa !3
  store ptr %17, ptr %11, align 8, !tbaa !8
  %18 = load ptr, ptr %11, align 8, !tbaa !8
  %19 = getelementptr inbounds nuw %struct.gz_state, ptr %18, i32 0, i32 1
  %20 = load i32, ptr %19, align 8, !tbaa !11
  %21 = icmp ne i32 %20, 7247
  br i1 %21, label %32, label %22

22:                                               ; preds = %16
  %23 = load ptr, ptr %11, align 8, !tbaa !8
  %24 = getelementptr inbounds nuw %struct.gz_state, ptr %23, i32 0, i32 18
  %25 = load i32, ptr %24, align 4, !tbaa !18
  %26 = icmp ne i32 %25, 0
  br i1 %26, label %27, label %33

27:                                               ; preds = %22
  %28 = load ptr, ptr %11, align 8, !tbaa !8
  %29 = getelementptr inbounds nuw %struct.gz_state, ptr %28, i32 0, i32 18
  %30 = load i32, ptr %29, align 4, !tbaa !18
  %31 = icmp ne i32 %30, -5
  br i1 %31, label %32, label %33

32:                                               ; preds = %27, %16
  store i64 0, ptr %5, align 8
  store i32 1, ptr %12, align 4
  br label %60

33:                                               ; preds = %27, %22
  %34 = load i64, ptr %8, align 8, !tbaa !19
  %35 = load i64, ptr %7, align 8, !tbaa !19
  %36 = mul i64 %34, %35
  store i64 %36, ptr %10, align 8, !tbaa !19
  %37 = load i64, ptr %7, align 8, !tbaa !19
  %38 = icmp ne i64 %37, 0
  br i1 %38, label %39, label %47

39:                                               ; preds = %33
  %40 = load i64, ptr %10, align 8, !tbaa !19
  %41 = load i64, ptr %7, align 8, !tbaa !19
  %42 = udiv i64 %40, %41
  %43 = load i64, ptr %8, align 8, !tbaa !19
  %44 = icmp ne i64 %42, %43
  br i1 %44, label %45, label %47

45:                                               ; preds = %39
  %46 = load ptr, ptr %11, align 8, !tbaa !8
  call void @gz_error(ptr noundef %46, i32 noundef -2, ptr noundef @.str.1)
  store i64 0, ptr %5, align 8
  store i32 1, ptr %12, align 4
  br label %60

47:                                               ; preds = %39, %33
  %48 = load i64, ptr %10, align 8, !tbaa !19
  %49 = icmp ne i64 %48, 0
  br i1 %49, label %50, label %57

50:                                               ; preds = %47
  %51 = load ptr, ptr %11, align 8, !tbaa !8
  %52 = load ptr, ptr %6, align 8, !tbaa !8
  %53 = load i64, ptr %10, align 8, !tbaa !19
  %54 = call i64 @gz_read(ptr noundef %51, ptr noundef %52, i64 noundef %53)
  %55 = load i64, ptr %7, align 8, !tbaa !19
  %56 = udiv i64 %54, %55
  br label %58

57:                                               ; preds = %47
  br label %58

58:                                               ; preds = %57, %50
  %59 = phi i64 [ %56, %50 ], [ 0, %57 ]
  store i64 %59, ptr %5, align 8
  store i32 1, ptr %12, align 4
  br label %60

60:                                               ; preds = %58, %45, %32, %15
  call void @llvm.lifetime.end.p0(i64 8, ptr %11) #8
  call void @llvm.lifetime.end.p0(i64 8, ptr %10) #8
  %61 = load i64, ptr %5, align 8
  ret i64 %61
}